; Function Attrs: mustprogress nounwind uwtable
define hidden noundef ptr @_ZN10ValueStack13pop_argumentsEi(ptr nocapture noundef nonnull align 8 dereferenceable(81) %0, i32 noundef %1) local_unnamed_addr #0 align 2 {
  %3 = getelementptr inbounds i8, ptr %0, i64 48
  %4 = load i32, ptr %3, align 8
  %5 = sub nsw i32 %4, %1
  %6 = tail call noundef ptr @_Z23resource_allocate_bytesmN17AllocFailStrategy13AllocFailEnumE(i64 noundef 24, i32 noundef 0) #8
  %7 = tail call noundef ptr @_ZN30GrowableArrayResourceAllocator8allocateEii(i32 noundef %1, i32 noundef 8) #8
  store i32 0, ptr %6, align 4
  %8 = getelementptr inbounds i8, ptr %6, i64 4
  store i32 %1, ptr %8, align 4
  %9 = getelementptr inbounds i8, ptr %6, i64 8
  store ptr %7, ptr %9, align 8
  %10 = icmp sgt i32 %1, 0
  br i1 %10, label %.lr.ph.preheader.i.i, label %_ZN13GrowableArrayIP11InstructionEC2Ei.exit

.lr.ph.preheader.i.i:                             ; preds = %2
  %11 = zext nneg i32 %1 to i64
  %12 = shl nuw nsw i64 %11, 3
  tail call void @llvm.memset.p0.i64(ptr align 8 %7, i8 0, i64 %12, i1 false)
  br label %_ZN13GrowableArrayIP11InstructionEC2Ei.exit

_ZN13GrowableArrayIP11InstructionEC2Ei.exit:      ; preds = %2, %.lr.ph.preheader.i.i
  %13 = getelementptr inbounds i8, ptr %6, i64 16
  store i64 0, ptr %13, align 8
  %14 = load i32, ptr %3, align 8
  %15 = icmp slt i32 %5, %14
  br i1 %15, label %.lr.ph, label %._crit_edge

.lr.ph:                                           ; preds = %_ZN13GrowableArrayIP11InstructionEC2Ei.exit
  %16 = getelementptr inbounds i8, ptr %0, i64 56
  br label %17

17:                                               ; preds = %.lr.ph, %_ZN26GrowableArrayWithAllocatorIP11Instruction13GrowableArrayIS1_EE4pushERKS1_.exit
  %.07 = phi i32 [ %5, %.lr.ph ], [ %29, %_ZN26GrowableArrayWithAllocatorIP11Instruction13GrowableArrayIS1_EE4pushERKS1_.exit ]
  %18 = load ptr, ptr %16, align 8
  %19 = sext i32 %.07 to i64
  %20 = getelementptr inbounds ptr, ptr %18, i64 %19
  %21 = load ptr, ptr %20, align 8
  %22 = icmp eq ptr %21, null
  br i1 %22, label %_ZNK10ValueStack12stack_at_incERi.exit, label %23

23:                                               ; preds = %17
  %24 = getelementptr inbounds i8, ptr %21, i64 24
  %25 = load ptr, ptr %24, align 8
  %26 = getelementptr inbounds i8, ptr %25, i64 8
  %27 = load i32, ptr %26, align 8
  br label %_ZNK10ValueStack12stack_at_incERi.exit

_ZNK10ValueStack12stack_at_incERi.exit:           ; preds = %17, %23
  %28 = phi i32 [ %27, %23 ], [ 1, %17 ]
  %29 = add nsw i32 %28, %.07
  %30 = load i32, ptr %6, align 8
  %31 = load i32, ptr %8, align 4
  %32 = icmp eq i32 %30, %31
  br i1 %32, label %33, label %_ZN26GrowableArrayWithAllocatorIP11Instruction13GrowableArrayIS1_EE4pushERKS1_.exit

33:                                               ; preds = %_ZNK10ValueStack12stack_at_incERi.exit
  %34 = add nsw i32 %30, 1
  %35 = icmp sgt i32 %30, -1
  %36 = xor i32 %30, -2147483648
  %37 = and i32 %36, %34
  %38 = icmp eq i32 %37, 0
  %39 = and i1 %35, %38
  %40 = tail call range(i32 0, 33) i32 @llvm.ctlz.i32(i32 %34, i1 true)
  %41 = sub nuw nsw i32 32, %40
  %42 = shl nuw i32 1, %41
  %.0.i.i.i.i.i = select i1 %39, i32 %34, i32 %42
  tail call void @_ZN26GrowableArrayWithAllocatorIP11Instruction13GrowableArrayIS1_EE9expand_toEi(ptr noundef nonnull align 8 dereferenceable(16) %6, i32 noundef %.0.i.i.i.i.i)
  %.pre.i.i = load i32, ptr %6, align 8
  br label %_ZN26GrowableArrayWithAllocatorIP11Instruction13GrowableArrayIS1_EE4pushERKS1_.exit

_ZN26GrowableArrayWithAllocatorIP11Instruction13GrowableArrayIS1_EE4pushERKS1_.exit: ; preds = %_ZNK10ValueStack12stack_at_incERi.exit, %33
  %43 = phi i32 [ %.pre.i.i, %33 ], [ %30, %_ZNK10ValueStack12stack_at_incERi.exit ]
  %44 = add nsw i32 %43, 1
  store i32 %44, ptr %6, align 8
  %45 = load ptr, ptr %9, align 8
  %46 = sext i32 %43 to i64
  %47 = getelementptr inbounds ptr, ptr %45, i64 %46
  store ptr %21, ptr %47, align 8
  %48 = load i32, ptr %3, align 8
  %49 = icmp slt i32 %29, %48
  br i1 %49, label %17, label %._crit_edge, !llvm.loop !19

._crit_edge:                                      ; preds = %_ZN26GrowableArrayWithAllocatorIP11Instruction13GrowableArrayIS1_EE4pushERKS1_.exit, %_ZN13GrowableArrayIP11InstructionEC2Ei.exit
  store i32 %5, ptr %3, align 8
  ret ptr %6
}